; Function Attrs: nounwind uwtable
define void @Res_WinFree(ptr noundef %0) local_unnamed_addr #2 {
  %2 = getelementptr inbounds nuw i8, ptr %0, i64 40
  %3 = load ptr, ptr %2, align 8
  %4 = getelementptr inbounds nuw i8, ptr %3, i64 8
  %5 = load ptr, ptr %4, align 8
  %.not.i = icmp eq ptr %5, null
  br i1 %.not.i, label %Vec_PtrFree.exit, label %6

6:                                                ; preds = %1
  tail call void @free(ptr noundef nonnull %5) #9
  br label %Vec_PtrFree.exit

Vec_PtrFree.exit:                                 ; preds = %1, %6
  tail call void @free(ptr noundef nonnull %3) #9
  %7 = getelementptr inbounds nuw i8, ptr %0, i64 48
  %8 = load ptr, ptr %7, align 8
  %9 = getelementptr inbounds nuw i8, ptr %8, i64 8
  %10 = load ptr, ptr %9, align 8
  %.not.i8 = icmp eq ptr %10, null
  br i1 %.not.i8, label %Vec_PtrFree.exit9, label %11

11:                                               ; preds = %Vec_PtrFree.exit
  tail call void @free(ptr noundef nonnull %10) #9
  br label %Vec_PtrFree.exit9

Vec_PtrFree.exit9:                                ; preds = %Vec_PtrFree.exit, %11
  tail call void @free(ptr noundef nonnull %8) #9
  %12 = getelementptr inbounds nuw i8, ptr %0, i64 56
  %13 = load ptr, ptr %12, align 8
  %14 = getelementptr inbounds nuw i8, ptr %13, i64 8
  %15 = load ptr, ptr %14, align 8
  %.not.i10 = icmp eq ptr %15, null
  br i1 %.not.i10, label %Vec_PtrFree.exit11, label %16

16:                                               ; preds = %Vec_PtrFree.exit9
  tail call void @free(ptr noundef nonnull %15) #9
  br label %Vec_PtrFree.exit11

Vec_PtrFree.exit11:                               ; preds = %Vec_PtrFree.exit9, %16
  tail call void @free(ptr noundef nonnull %13) #9
  %17 = getelementptr inbounds nuw i8, ptr %0, i64 64
  %18 = load ptr, ptr %17, align 8
  %19 = getelementptr inbounds nuw i8, ptr %18, i64 8
  %20 = load ptr, ptr %19, align 8
  %.not.i12 = icmp eq ptr %20, null
  br i1 %.not.i12, label %Vec_PtrFree.exit13, label %21

21:                                               ; preds = %Vec_PtrFree.exit11
  tail call void @free(ptr noundef nonnull %20) #9
  br label %Vec_PtrFree.exit13

Vec_PtrFree.exit13:                               ; preds = %Vec_PtrFree.exit11, %21
  tail call void @free(ptr noundef nonnull %18) #9
  %22 = getelementptr inbounds nuw i8, ptr %0, i64 72
  %23 = load ptr, ptr %22, align 8
  %24 = getelementptr inbounds nuw i8, ptr %23, i64 8
  %25 = load ptr, ptr %24, align 8
  %.not.i14 = icmp eq ptr %25, null
  br i1 %.not.i14, label %Vec_PtrFree.exit15, label %26

26:                                               ; preds = %Vec_PtrFree.exit13
  tail call void @free(ptr noundef nonnull %25) #9
  br label %Vec_PtrFree.exit15

Vec_PtrFree.exit15:                               ; preds = %Vec_PtrFree.exit13, %26
  tail call void @free(ptr noundef nonnull %23) #9
  %27 = getelementptr inbounds nuw i8, ptr %0, i64 80
  %28 = load ptr, ptr %27, align 8
  %29 = getelementptr i8, ptr %28, i64 4
  %.val11.i = load i32, ptr %29, align 4
  %30 = icmp sgt i32 %.val11.i, 0
  br i1 %30, label %.lr.ph.i, label %.critedge.i

.lr.ph.i:                                         ; preds = %Vec_PtrFree.exit15
  %31 = getelementptr i8, ptr %28, i64 8
  br label %32

32:                                               ; preds = %39, %.lr.ph.i
  %.val14.i = phi i32 [ %.val11.i, %.lr.ph.i ], [ %.val.i, %39 ]
  %indvars.iv.i = phi i64 [ 0, %.lr.ph.i ], [ %indvars.iv.next.i, %39 ]
  %.val8.i = load ptr, ptr %31, align 8
  %33 = getelementptr inbounds nuw ptr, ptr %.val8.i, i64 %indvars.iv.i
  %34 = load ptr, ptr %33, align 8
  %.not.i16 = icmp eq ptr %34, null
  br i1 %.not.i16, label %39, label %35

35:                                               ; preds = %32
  %36 = getelementptr inbounds nuw i8, ptr %34, i64 8
  %37 = load ptr, ptr %36, align 8
  %.not.i.i = icmp eq ptr %37, null
  br i1 %.not.i.i, label %Vec_PtrFree.exit.i, label %38

38:                                               ; preds = %35
  tail call void @free(ptr noundef nonnull %37) #9
  br label %Vec_PtrFree.exit.i

Vec_PtrFree.exit.i:                               ; preds = %38, %35
  tail call void @free(ptr noundef nonnull %34) #9
  %.val.pre.i = load i32, ptr %29, align 4
  br label %39

39:                                               ; preds = %Vec_PtrFree.exit.i, %32
  %.val.i = phi i32 [ %.val14.i, %32 ], [ %.val.pre.i, %Vec_PtrFree.exit.i ]
  %indvars.iv.next.i = add nuw nsw i64 %indvars.iv.i, 1
  %40 = sext i32 %.val.i to i64
  %41 = icmp slt i64 %indvars.iv.next.i, %40
  br i1 %41, label %32, label %.critedge.i, !llvm.loop !6

.critedge.i:                                      ; preds = %39, %Vec_PtrFree.exit15
  %42 = getelementptr inbounds nuw i8, ptr %28, i64 8
  %43 = load ptr, ptr %42, align 8
  %.not.i9.i = icmp eq ptr %43, null
  br i1 %.not.i9.i, label %Vec_VecFree.exit, label %44

44:                                               ; preds = %.critedge.i
  tail call void @free(ptr noundef nonnull %43) #9
  br label %Vec_VecFree.exit

Vec_VecFree.exit:                                 ; preds = %.critedge.i, %44
  tail call void @free(ptr noundef nonnull %28) #9
  %.not = icmp eq ptr %0, null
  br i1 %.not, label %46, label %45

45:                                               ; preds = %Vec_VecFree.exit
  tail call void @free(ptr noundef nonnull %0) #9
  br label %46

46:                                               ; preds = %Vec_VecFree.exit, %45
  ret void
}